target datalayout = "e-m:e-p270:32:32-p271:32:32-p272:64:64-i64:64-i128:128-f80:128-n8:16:32:64-S128"
target triple = "x86_64-pc-linux-gnu"

%struct.anon = type { i8, i8 }
%struct.ec_group_st = type { ptr, ptr, ptr, ptr, i32, i32, i32, i32, ptr, i64, ptr, [6 x i32], ptr, ptr, i32, ptr, ptr, ptr, ptr, i32, %union.anon.0, ptr, ptr }
%union.anon.0 = type { ptr }

@.str = private unnamed_addr constant [36 x i8] c"../openssl/crypto/ec/ecp_nistz256.c\00", align 1
@ecp_nistz256_inv_mod_ord.RR = internal constant [4 x i64] [i64 -8996981949549908318, i64 5087230966250696614, i64 2901921493521525849, i64 7413256579398063648], align 16
@ecp_nistz256_inv_mod_ord.one = internal constant [4 x i64] [i64 1, i64 0, i64 0, i64 0], align 16
@__func__.ecp_nistz256_inv_mod_ord = private unnamed_addr constant [25 x i8] c"ecp_nistz256_inv_mod_ord\00", align 1

; Function Attrs: nounwind uwtable
define internal i32 @ecp_nistz256_bignum_to_field_elem(ptr noundef %0, ptr noundef %1) #0 {
  %3 = alloca ptr, align 8
  %4 = alloca ptr, align 8
  store ptr %0, ptr %3, align 8, !tbaa !68
  store ptr %1, ptr %4, align 8, !tbaa !21
  %5 = load ptr, ptr %3, align 8, !tbaa !68
  %6 = load ptr, ptr %4, align 8, !tbaa !21
  %7 = call i32 @bn_copy_words(ptr noundef %5, ptr noundef %6, i32 noundef 4)
  ret i32 %7
}

; Function Attrs: nounwind uwtable
define internal i32 @ecp_nistz256_inv_mod_ord(ptr noundef %0, ptr noundef %1, ptr noundef %2, ptr noundef %3) #0 {
  %5 = alloca i32, align 4
  %6 = alloca ptr, align 8
  %7 = alloca ptr, align 8
  %8 = alloca ptr, align 8
  %9 = alloca ptr, align 8
  %10 = alloca [15 x [4 x i64]], align 16
  %11 = alloca [4 x i64], align 16
  %12 = alloca [4 x i64], align 16
  %13 = alloca i32, align 4
  %14 = alloca i32, align 4
  %15 = alloca ptr, align 8
  %16 = alloca i32, align 4
  store ptr %0, ptr %6, align 8, !tbaa !18
  store ptr %1, ptr %7, align 8, !tbaa !21
  store ptr %2, ptr %8, align 8, !tbaa !21
  store ptr %3, ptr %9, align 8, !tbaa !23
  call void @llvm.lifetime.start.p0(i64 480, ptr %10) #6
  call void @llvm.lifetime.start.p0(i64 32, ptr %11) #6
  call void @llvm.lifetime.start.p0(i64 32, ptr %12) #6
  call void @llvm.lifetime.start.p0(i64 4, ptr %13) #6
  call void @llvm.lifetime.start.p0(i64 4, ptr %14) #6
  store i32 0, ptr %14, align 4, !tbaa !11
  %17 = load ptr, ptr %7, align 8, !tbaa !21
  %18 = call ptr @bn_wexpand(ptr noundef %17, i32 noundef 4)
  %19 = icmp eq ptr %18, null
  br i1 %19, label %20, label %21

20:                                               ; preds = %4
  call void @ERR_new()
  call void @ERR_set_debug(ptr noundef @.str, i32 noundef 1307, ptr noundef @__func__.ecp_nistz256_inv_mod_ord)
  call void (i32, i32, ptr, ...) @ERR_set_error(i32 noundef 16, i32 noundef 524291, ptr noundef null)
  br label %187

21:                                               ; preds = %4
  %22 = load ptr, ptr %8, align 8, !tbaa !21
  %23 = call i32 @BN_num_bits(ptr noundef %22)
  %24 = icmp sgt i32 %23, 256
  br i1 %24, label %29, label %25

25:                                               ; preds = %21
  %26 = load ptr, ptr %8, align 8, !tbaa !21
  %27 = call i32 @BN_is_negative(ptr noundef %26)
  %28 = icmp ne i32 %27, 0
  br i1 %28, label %29, label %48

29:                                               ; preds = %25, %21
  call void @llvm.lifetime.start.p0(i64 8, ptr %15) #6
  %30 = load ptr, ptr %9, align 8, !tbaa !23
  %31 = call ptr @BN_CTX_get(ptr noundef %30)
  store ptr %31, ptr %15, align 8, !tbaa !21
  %32 = icmp eq ptr %31, null
  br i1 %32, label %42, label %33

33:                                               ; preds = %29
  %34 = load ptr, ptr %15, align 8, !tbaa !21
  %35 = load ptr, ptr %8, align 8, !tbaa !21
  %36 = load ptr, ptr %6, align 8, !tbaa !18
  %37 = getelementptr inbounds nuw %struct.ec_group_st, ptr %36, i32 0, i32 2
  %38 = load ptr, ptr %37, align 8, !tbaa !37
  %39 = load ptr, ptr %9, align 8, !tbaa !23
  %40 = call i32 @BN_nnmod(ptr noundef %34, ptr noundef %35, ptr noundef %38, ptr noundef %39)
  %41 = icmp ne i32 %40, 0
  br i1 %41, label %43, label %42

42:                                               ; preds = %33, %29
  call void @ERR_new()
  call void @ERR_set_debug(ptr noundef @.str, i32 noundef 1316, ptr noundef @__func__.ecp_nistz256_inv_mod_ord)
  call void (i32, i32, ptr, ...) @ERR_set_error(i32 noundef 16, i32 noundef 524291, ptr noundef null)
  store i32 2, ptr %16, align 4
  br label %45

43:                                               ; preds = %33
  %44 = load ptr, ptr %15, align 8, !tbaa !21
  store ptr %44, ptr %8, align 8, !tbaa !21
  store i32 0, ptr %16, align 4
  br label %45

45:                                               ; preds = %42, %43
  call void @llvm.lifetime.end.p0(i64 8, ptr %15) #6
  %46 = load i32, ptr %16, align 4
  switch i32 %46, label %189 [
    i32 0, label %47
    i32 2, label %187
  ]

47:                                               ; preds = %45
  br label %48

48:                                               ; preds = %47, %25
  %49 = getelementptr inbounds [4 x i64], ptr %12, i64 0, i64 0
  %50 = load ptr, ptr %8, align 8, !tbaa !21
  %51 = call i32 @ecp_nistz256_bignum_to_field_elem(ptr noundef %49, ptr noundef %50)
  %52 = icmp ne i32 %51, 0
  br i1 %52, label %54, label %53

53:                                               ; preds = %48
  call void @ERR_new()
  call void @ERR_set_debug(ptr noundef @.str, i32 noundef 1323, ptr noundef @__func__.ecp_nistz256_inv_mod_ord)
  call void (i32, i32, ptr, ...) @ERR_set_error(i32 noundef 16, i32 noundef 146, ptr noundef null)
  br label %187

54:                                               ; preds = %48
  %55 = getelementptr inbounds [15 x [4 x i64]], ptr %10, i64 0, i64 0
  %56 = getelementptr inbounds [4 x i64], ptr %55, i64 0, i64 0
  %57 = getelementptr inbounds [4 x i64], ptr %12, i64 0, i64 0
  call void @ecp_nistz256_ord_mul_mont(ptr noundef %56, ptr noundef %57, ptr noundef @ecp_nistz256_inv_mod_ord.RR)
  %58 = getelementptr inbounds [15 x [4 x i64]], ptr %10, i64 0, i64 1
  %59 = getelementptr inbounds [4 x i64], ptr %58, i64 0, i64 0
  %60 = getelementptr inbounds [15 x [4 x i64]], ptr %10, i64 0, i64 0
  %61 = getelementptr inbounds [4 x i64], ptr %60, i64 0, i64 0
  call void @ecp_nistz256_ord_sqr_mont(ptr noundef %59, ptr noundef %61, i64 noundef 1)
  %62 = getelementptr inbounds [15 x [4 x i64]], ptr %10, i64 0, i64 2
  %63 = getelementptr inbounds [4 x i64], ptr %62, i64 0, i64 0
  %64 = getelementptr inbounds [15 x [4 x i64]], ptr %10, i64 0, i64 0
  %65 = getelementptr inbounds [4 x i64], ptr %64, i64 0, i64 0
  %66 = getelementptr inbounds [15 x [4 x i64]], ptr %10, i64 0, i64 1
  %67 = getelementptr inbounds [4 x i64], ptr %66, i64 0, i64 0
  call void @ecp_nistz256_ord_mul_mont(ptr noundef %63, ptr noundef %65, ptr noundef %67)
  %68 = getelementptr inbounds [15 x [4 x i64]], ptr %10, i64 0, i64 3
  %69 = getelementptr inbounds [4 x i64], ptr %68, i64 0, i64 0
  %70 = getelementptr inbounds [15 x [4 x i64]], ptr %10, i64 0, i64 2
  %71 = getelementptr inbounds [4 x i64], ptr %70, i64 0, i64 0
  %72 = getelementptr inbounds [15 x [4 x i64]], ptr %10, i64 0, i64 1
  %73 = getelementptr inbounds [4 x i64], ptr %72, i64 0, i64 0
  call void @ecp_nistz256_ord_mul_mont(ptr noundef %69, ptr noundef %71, ptr noundef %73)
  %74 = getelementptr inbounds [15 x [4 x i64]], ptr %10, i64 0, i64 4
  %75 = getelementptr inbounds [4 x i64], ptr %74, i64 0, i64 0
  %76 = getelementptr inbounds [15 x [4 x i64]], ptr %10, i64 0, i64 3
  %77 = getelementptr inbounds [4 x i64], ptr %76, i64 0, i64 0
  %78 = getelementptr inbounds [15 x [4 x i64]], ptr %10, i64 0, i64 1
  %79 = getelementptr inbounds [4 x i64], ptr %78, i64 0, i64 0
  call void @ecp_nistz256_ord_mul_mont(ptr noundef %75, ptr noundef %77, ptr noundef %79)
  %80 = getelementptr inbounds [15 x [4 x i64]], ptr %10, i64 0, i64 5
  %81 = getelementptr inbounds [4 x i64], ptr %80, i64 0, i64 0
  %82 = getelementptr inbounds [15 x [4 x i64]], ptr %10, i64 0, i64 3
  %83 = getelementptr inbounds [4 x i64], ptr %82, i64 0, i64 0
  call void @ecp_nistz256_ord_sqr_mont(ptr noundef %81, ptr noundef %83, i64 noundef 1)
  %84 = getelementptr inbounds [15 x [4 x i64]], ptr %10, i64 0, i64 6
  %85 = getelementptr inbounds [4 x i64], ptr %84, i64 0, i64 0
  %86 = getelementptr inbounds [15 x [4 x i64]], ptr %10, i64 0, i64 5
  %87 = getelementptr inbounds [4 x i64], ptr %86, i64 0, i64 0
  %88 = getelementptr inbounds [15 x [4 x i64]], ptr %10, i64 0, i64 3
  %89 = getelementptr inbounds [4 x i64], ptr %88, i64 0, i64 0
  call void @ecp_nistz256_ord_mul_mont(ptr noundef %85, ptr noundef %87, ptr noundef %89)
  %90 = getelementptr inbounds [15 x [4 x i64]], ptr %10, i64 0, i64 7
  %91 = getelementptr inbounds [4 x i64], ptr %90, i64 0, i64 0
  %92 = getelementptr inbounds [15 x [4 x i64]], ptr %10, i64 0, i64 5
  %93 = getelementptr inbounds [4 x i64], ptr %92, i64 0, i64 0
  call void @ecp_nistz256_ord_sqr_mont(ptr noundef %91, ptr noundef %93, i64 noundef 1)
  %94 = getelementptr inbounds [15 x [4 x i64]], ptr %10, i64 0, i64 7
  %95 = getelementptr inbounds [4 x i64], ptr %94, i64 0, i64 0
  %96 = getelementptr inbounds [15 x [4 x i64]], ptr %10, i64 0, i64 7
  %97 = getelementptr inbounds [4 x i64], ptr %96, i64 0, i64 0
  %98 = getelementptr inbounds [15 x [4 x i64]], ptr %10, i64 0, i64 0
  %99 = getelementptr inbounds [4 x i64], ptr %98, i64 0, i64 0
  call void @ecp_nistz256_ord_mul_mont(ptr noundef %95, ptr noundef %97, ptr noundef %99)
  %100 = getelementptr inbounds [15 x [4 x i64]], ptr %10, i64 0, i64 8
  %101 = getelementptr inbounds [4 x i64], ptr %100, i64 0, i64 0
  %102 = getelementptr inbounds [15 x [4 x i64]], ptr %10, i64 0, i64 7
  %103 = getelementptr inbounds [4 x i64], ptr %102, i64 0, i64 0
  call void @ecp_nistz256_ord_sqr_mont(ptr noundef %101, ptr noundef %103, i64 noundef 1)
  %104 = getelementptr inbounds [15 x [4 x i64]], ptr %10, i64 0, i64 9
  %105 = getelementptr inbounds [4 x i64], ptr %104, i64 0, i64 0
  %106 = getelementptr inbounds [15 x [4 x i64]], ptr %10, i64 0, i64 8
  %107 = getelementptr inbounds [4 x i64], ptr %106, i64 0, i64 0
  %108 = getelementptr inbounds [15 x [4 x i64]], ptr %10, i64 0, i64 3
  %109 = getelementptr inbounds [4 x i64], ptr %108, i64 0, i64 0
  call void @ecp_nistz256_ord_mul_mont(ptr noundef %105, ptr noundef %107, ptr noundef %109)
  %110 = getelementptr inbounds [15 x [4 x i64]], ptr %10, i64 0, i64 10
  %111 = getelementptr inbounds [4 x i64], ptr %110, i64 0, i64 0
  %112 = getelementptr inbounds [15 x [4 x i64]], ptr %10, i64 0, i64 8
  %113 = getelementptr inbounds [4 x i64], ptr %112, i64 0, i64 0
  %114 = getelementptr inbounds [15 x [4 x i64]], ptr %10, i64 0, i64 7
  %115 = getelementptr inbounds [4 x i64], ptr %114, i64 0, i64 0
  call void @ecp_nistz256_ord_mul_mont(ptr noundef %111, ptr noundef %113, ptr noundef %115)
  %116 = getelementptr inbounds [15 x [4 x i64]], ptr %10, i64 0, i64 11
  %117 = getelementptr inbounds [4 x i64], ptr %116, i64 0, i64 0
  %118 = getelementptr inbounds [15 x [4 x i64]], ptr %10, i64 0, i64 10
  %119 = getelementptr inbounds [4 x i64], ptr %118, i64 0, i64 0
  call void @ecp_nistz256_ord_sqr_mont(ptr noundef %117, ptr noundef %119, i64 noundef 2)
  %120 = getelementptr inbounds [15 x [4 x i64]], ptr %10, i64 0, i64 11
  %121 = getelementptr inbounds [4 x i64], ptr %120, i64 0, i64 0
  %122 = getelementptr inbounds [15 x [4 x i64]], ptr %10, i64 0, i64 11
  %123 = getelementptr inbounds [4 x i64], ptr %122, i64 0, i64 0
  %124 = getelementptr inbounds [15 x [4 x i64]], ptr %10, i64 0, i64 2
  %125 = getelementptr inbounds [4 x i64], ptr %124, i64 0, i64 0
  call void @ecp_nistz256_ord_mul_mont(ptr noundef %121, ptr noundef %123, ptr noundef %125)
  %126 = getelementptr inbounds [15 x [4 x i64]], ptr %10, i64 0, i64 12
  %127 = getelementptr inbounds [4 x i64], ptr %126, i64 0, i64 0
  %128 = getelementptr inbounds [15 x [4 x i64]], ptr %10, i64 0, i64 11
  %129 = getelementptr inbounds [4 x i64], ptr %128, i64 0, i64 0
  call void @ecp_nistz256_ord_sqr_mont(ptr noundef %127, ptr noundef %129, i64 noundef 8)
  %130 = getelementptr inbounds [15 x [4 x i64]], ptr %10, i64 0, i64 12
  %131 = getelementptr inbounds [4 x i64], ptr %130, i64 0, i64 0
  %132 = getelementptr inbounds [15 x [4 x i64]], ptr %10, i64 0, i64 12
  %133 = getelementptr inbounds [4 x i64], ptr %132, i64 0, i64 0
  %134 = getelementptr inbounds [15 x [4 x i64]], ptr %10, i64 0, i64 11
  %135 = getelementptr inbounds [4 x i64], ptr %134, i64 0, i64 0
  call void @ecp_nistz256_ord_mul_mont(ptr noundef %131, ptr noundef %133, ptr noundef %135)
  %136 = getelementptr inbounds [15 x [4 x i64]], ptr %10, i64 0, i64 13
  %137 = getelementptr inbounds [4 x i64], ptr %136, i64 0, i64 0
  %138 = getelementptr inbounds [15 x [4 x i64]], ptr %10, i64 0, i64 12
  %139 = getelementptr inbounds [4 x i64], ptr %138, i64 0, i64 0
  call void @ecp_nistz256_ord_sqr_mont(ptr noundef %137, ptr noundef %139, i64 noundef 16)
  %140 = getelementptr inbounds [15 x [4 x i64]], ptr %10, i64 0, i64 13
  %141 = getelementptr inbounds [4 x i64], ptr %140, i64 0, i64 0
  %142 = getelementptr inbounds [15 x [4 x i64]], ptr %10, i64 0, i64 13
  %143 = getelementptr inbounds [4 x i64], ptr %142, i64 0, i64 0
  %144 = getelementptr inbounds [15 x [4 x i64]], ptr %10, i64 0, i64 12
  %145 = getelementptr inbounds [4 x i64], ptr %144, i64 0, i64 0
  call void @ecp_nistz256_ord_mul_mont(ptr noundef %141, ptr noundef %143, ptr noundef %145)
  %146 = getelementptr inbounds [4 x i64], ptr %11, i64 0, i64 0
  %147 = getelementptr inbounds [15 x [4 x i64]], ptr %10, i64 0, i64 13
  %148 = getelementptr inbounds [4 x i64], ptr %147, i64 0, i64 0
  call void @ecp_nistz256_ord_sqr_mont(ptr noundef %146, ptr noundef %148, i64 noundef 64)
  %149 = getelementptr inbounds [4 x i64], ptr %11, i64 0, i64 0
  %150 = getelementptr inbounds [4 x i64], ptr %11, i64 0, i64 0
  %151 = getelementptr inbounds [15 x [4 x i64]], ptr %10, i64 0, i64 13
  %152 = getelementptr inbounds [4 x i64], ptr %151, i64 0, i64 0
  call void @ecp_nistz256_ord_mul_mont(ptr noundef %149, ptr noundef %150, ptr noundef %152)
  store i32 0, ptr %13, align 4, !tbaa !11
  br label %153

153:                                              ; preds = %175, %54
  %154 = load i32, ptr %13, align 4, !tbaa !11
  %155 = icmp slt i32 %154, 27
  br i1 %155, label %156, label %178

156:                                              ; preds = %153
  %157 = getelementptr inbounds [4 x i64], ptr %11, i64 0, i64 0
  %158 = getelementptr inbounds [4 x i64], ptr %11, i64 0, i64 0
  %159 = load i32, ptr %13, align 4, !tbaa !11
  %160 = sext i32 %159 to i64
  %161 = getelementptr inbounds [27 x %struct.anon], ptr @ecp_nistz256_inv_mod_ord.chain, i64 0, i64 %160
  %162 = getelementptr inbounds nuw %struct.anon, ptr %161, i32 0, i32 0
  %163 = load i8, ptr %162, align 2, !tbaa !58
  %164 = zext i8 %163 to i64
  call void @ecp_nistz256_ord_sqr_mont(ptr noundef %157, ptr noundef %158, i64 noundef %164)
  %165 = getelementptr inbounds [4 x i64], ptr %11, i64 0, i64 0
  %166 = getelementptr inbounds [4 x i64], ptr %11, i64 0, i64 0
  %167 = load i32, ptr %13, align 4, !tbaa !11
  %168 = sext i32 %167 to i64
  %169 = getelementptr inbounds [27 x %struct.anon], ptr @ecp_nistz256_inv_mod_ord.chain, i64 0, i64 %168
  %170 = getelementptr inbounds nuw %struct.anon, ptr %169, i32 0, i32 1
  %171 = load i8, ptr %170, align 1, !tbaa !60
  %172 = zext i8 %171 to i64
  %173 = getelementptr inbounds nuw [15 x [4 x i64]], ptr %10, i64 0, i64 %172
  %174 = getelementptr inbounds [4 x i64], ptr %173, i64 0, i64 0
  call void @ecp_nistz256_ord_mul_mont(ptr noundef %165, ptr noundef %166, ptr noundef %174)
  br label %175

175:                                              ; preds = %156
  %176 = load i32, ptr %13, align 4, !tbaa !11
  %177 = add nsw i32 %176, 1
  store i32 %177, ptr %13, align 4, !tbaa !11
  br label %153, !llvm.loop !61

178:                                              ; preds = %153
  %179 = getelementptr inbounds [4 x i64], ptr %11, i64 0, i64 0
  %180 = getelementptr inbounds [4 x i64], ptr %11, i64 0, i64 0
  call void @ecp_nistz256_ord_mul_mont(ptr noundef %179, ptr noundef %180, ptr noundef @ecp_nistz256_inv_mod_ord.one)
  %181 = load ptr, ptr %7, align 8, !tbaa !21
  %182 = getelementptr inbounds [4 x i64], ptr %11, i64 0, i64 0
  %183 = call i32 @bn_set_words(ptr noundef %181, ptr noundef %182, i32 noundef 4)
  %184 = icmp ne i32 %183, 0
  br i1 %184, label %186, label %185

185:                                              ; preds = %178
  br label %187

186:                                              ; preds = %178
  store i32 1, ptr %14, align 4, !tbaa !11
  br label %187

187:                                              ; preds = %186, %45, %185, %53, %20
  %188 = load i32, ptr %14, align 4, !tbaa !11
  store i32 %188, ptr %5, align 4
  store i32 1, ptr %16, align 4
  br label %189

189:                                              ; preds = %187, %45
  call void @llvm.lifetime.end.p0(i64 4, ptr %14) #6
  call void @llvm.lifetime.end.p0(i64 4, ptr %13) #6
  call void @llvm.lifetime.end.p0(i64 32, ptr %12) #6
  call void @llvm.lifetime.end.p0(i64 32, ptr %11) #6
  call void @llvm.lifetime.end.p0(i64 480, ptr %10) #6
  %190 = load i32, ptr %5, align 4
  ret i32 %190
}