; Function Attrs: nounwind uwtable
define internal range(i32 0, 2) i32 @ecp_nistz256_inv_mod_ord(ptr noundef readonly captures(none) %0, ptr noundef %1, ptr noundef %2, ptr noundef %3) #2 {
  %5 = alloca [15 x [4 x i64]], align 16
  %6 = alloca [4 x i64], align 16
  %7 = alloca [4 x i64], align 16
  call void @llvm.lifetime.start.p0(i64 480, ptr nonnull %5) #7
  call void @llvm.lifetime.start.p0(i64 32, ptr nonnull %6) #7
  call void @llvm.lifetime.start.p0(i64 32, ptr nonnull %7) #7
  %8 = tail call ptr @bn_wexpand(ptr noundef %1, i32 noundef 4) #7
  %9 = icmp eq ptr %8, null
  br i1 %9, label %10, label %11

10:                                               ; preds = %4
  tail call void @ERR_new() #7
  tail call void @ERR_set_debug(ptr noundef nonnull @.str, i32 noundef 1307, ptr noundef nonnull @__func__.ecp_nistz256_inv_mod_ord) #7
  tail call void (i32, i32, ptr, ...) @ERR_set_error(i32 noundef 16, i32 noundef 524291, ptr noundef null) #7
  br label %50

11:                                               ; preds = %4
  %12 = tail call i32 @BN_num_bits(ptr noundef %2) #7
  %13 = icmp sgt i32 %12, 256
  br i1 %13, label %16, label %14

14:                                               ; preds = %11
  %15 = tail call i32 @BN_is_negative(ptr noundef %2) #7
  %.not = icmp eq i32 %15, 0
  br i1 %.not, label %.thread, label %16

16:                                               ; preds = %14, %11
  %17 = tail call ptr @BN_CTX_get(ptr noundef %3) #7
  %18 = icmp eq ptr %17, null
  br i1 %18, label %23, label %19

19:                                               ; preds = %16
  %20 = getelementptr inbounds nuw i8, ptr %0, i64 16
  %21 = load ptr, ptr %20, align 8, !tbaa !29
  %22 = tail call i32 @BN_nnmod(ptr noundef nonnull %17, ptr noundef %2, ptr noundef %21, ptr noundef %3) #7
  %.not22 = icmp eq i32 %22, 0
  br i1 %.not22, label %23, label %.thread

23:                                               ; preds = %16, %19
  tail call void @ERR_new() #7
  tail call void @ERR_set_debug(ptr noundef nonnull @.str, i32 noundef 1316, ptr noundef nonnull @__func__.ecp_nistz256_inv_mod_ord) #7
  tail call void (i32, i32, ptr, ...) @ERR_set_error(i32 noundef 16, i32 noundef 524291, ptr noundef null) #7
  br label %50

.thread:                                          ; preds = %19, %14
  %.020 = phi ptr [ %2, %14 ], [ %17, %19 ]
  %24 = call i32 @bn_copy_words(ptr noundef nonnull %7, ptr noundef %.020, i32 noundef 4) #7
  %.not23 = icmp eq i32 %24, 0
  br i1 %.not23, label %25, label %26

25:                                               ; preds = %.thread
  call void @ERR_new() #7
  call void @ERR_set_debug(ptr noundef nonnull @.str, i32 noundef 1323, ptr noundef nonnull @__func__.ecp_nistz256_inv_mod_ord) #7
  call void (i32, i32, ptr, ...) @ERR_set_error(i32 noundef 16, i32 noundef 146, ptr noundef null) #7
  br label %50

26:                                               ; preds = %.thread
  call void @ecp_nistz256_ord_mul_mont(ptr noundef nonnull %5, ptr noundef nonnull %7, ptr noundef nonnull @ecp_nistz256_inv_mod_ord.RR) #7
  %27 = getelementptr inbounds nuw i8, ptr %5, i64 32
  call void @ecp_nistz256_ord_sqr_mont(ptr noundef nonnull %27, ptr noundef nonnull %5, i64 noundef 1) #7
  %28 = getelementptr inbounds nuw i8, ptr %5, i64 64
  call void @ecp_nistz256_ord_mul_mont(ptr noundef nonnull %28, ptr noundef nonnull %5, ptr noundef nonnull %27) #7
  %29 = getelementptr inbounds nuw i8, ptr %5, i64 96
  call void @ecp_nistz256_ord_mul_mont(ptr noundef nonnull %29, ptr noundef nonnull %28, ptr noundef nonnull %27) #7
  %30 = getelementptr inbounds nuw i8, ptr %5, i64 128
  call void @ecp_nistz256_ord_mul_mont(ptr noundef nonnull %30, ptr noundef nonnull %29, ptr noundef nonnull %27) #7
  %31 = getelementptr inbounds nuw i8, ptr %5, i64 160
  call void @ecp_nistz256_ord_sqr_mont(ptr noundef nonnull %31, ptr noundef nonnull %29, i64 noundef 1) #7
  %32 = getelementptr inbounds nuw i8, ptr %5, i64 192
  call void @ecp_nistz256_ord_mul_mont(ptr noundef nonnull %32, ptr noundef nonnull %31, ptr noundef nonnull %29) #7
  %33 = getelementptr inbounds nuw i8, ptr %5, i64 224
  call void @ecp_nistz256_ord_sqr_mont(ptr noundef nonnull %33, ptr noundef nonnull %31, i64 noundef 1) #7
  call void @ecp_nistz256_ord_mul_mont(ptr noundef nonnull %33, ptr noundef nonnull %33, ptr noundef nonnull %5) #7
  %34 = getelementptr inbounds nuw i8, ptr %5, i64 256
  call void @ecp_nistz256_ord_sqr_mont(ptr noundef nonnull %34, ptr noundef nonnull %33, i64 noundef 1) #7
  %35 = getelementptr inbounds nuw i8, ptr %5, i64 288
  call void @ecp_nistz256_ord_mul_mont(ptr noundef nonnull %35, ptr noundef nonnull %34, ptr noundef nonnull %29) #7
  %36 = getelementptr inbounds nuw i8, ptr %5, i64 320
  call void @ecp_nistz256_ord_mul_mont(ptr noundef nonnull %36, ptr noundef nonnull %34, ptr noundef nonnull %33) #7
  %37 = getelementptr inbounds nuw i8, ptr %5, i64 352
  call void @ecp_nistz256_ord_sqr_mont(ptr noundef nonnull %37, ptr noundef nonnull %36, i64 noundef 2) #7
  call void @ecp_nistz256_ord_mul_mont(ptr noundef nonnull %37, ptr noundef nonnull %37, ptr noundef nonnull %28) #7
  %38 = getelementptr inbounds nuw i8, ptr %5, i64 384
  call void @ecp_nistz256_ord_sqr_mont(ptr noundef nonnull %38, ptr noundef nonnull %37, i64 noundef 8) #7
  call void @ecp_nistz256_ord_mul_mont(ptr noundef nonnull %38, ptr noundef nonnull %38, ptr noundef nonnull %37) #7
  %39 = getelementptr inbounds nuw i8, ptr %5, i64 416
  call void @ecp_nistz256_ord_sqr_mont(ptr noundef nonnull %39, ptr noundef nonnull %38, i64 noundef 16) #7
  call void @ecp_nistz256_ord_mul_mont(ptr noundef nonnull %39, ptr noundef nonnull %39, ptr noundef nonnull %38) #7
  call void @ecp_nistz256_ord_sqr_mont(ptr noundef nonnull %6, ptr noundef nonnull %39, i64 noundef 64) #7
  call void @ecp_nistz256_ord_mul_mont(ptr noundef nonnull %6, ptr noundef nonnull %6, ptr noundef nonnull %39) #7
  br label %40

40:                                               ; preds = %26, %40
  %indvars.iv = phi i64 [ 0, %26 ], [ %indvars.iv.next, %40 ]
  %41 = getelementptr inbounds nuw [27 x %struct.anon], ptr @ecp_nistz256_inv_mod_ord.chain, i64 0, i64 %indvars.iv
  %42 = load i8, ptr %41, align 2, !tbaa !56
  %43 = zext i8 %42 to i64
  call void @ecp_nistz256_ord_sqr_mont(ptr noundef nonnull %6, ptr noundef nonnull %6, i64 noundef %43) #7
  %44 = getelementptr inbounds nuw i8, ptr %41, i64 1
  %45 = load i8, ptr %44, align 1, !tbaa !58
  %46 = zext i8 %45 to i64
  %47 = getelementptr inbounds nuw [15 x [4 x i64]], ptr %5, i64 0, i64 %46
  call void @ecp_nistz256_ord_mul_mont(ptr noundef nonnull %6, ptr noundef nonnull %6, ptr noundef nonnull %47) #7
  %indvars.iv.next = add nuw nsw i64 %indvars.iv, 1
  %exitcond.not = icmp eq i64 %indvars.iv.next, 27
  br i1 %exitcond.not, label %48, label %40, !llvm.loop !59

48:                                               ; preds = %40
  call void @ecp_nistz256_ord_mul_mont(ptr noundef nonnull %6, ptr noundef nonnull %6, ptr noundef nonnull @ecp_nistz256_inv_mod_ord.one) #7
  %49 = call i32 @bn_set_words(ptr noundef %1, ptr noundef nonnull %6, i32 noundef 4) #7
  %.not24 = icmp ne i32 %49, 0
  %spec.select = zext i1 %.not24 to i32
  br label %50

50:                                               ; preds = %23, %48, %10, %25
  %.018 = phi i32 [ 0, %10 ], [ 0, %23 ], [ 0, %25 ], [ %spec.select, %48 ]
  call void @llvm.lifetime.end.p0(i64 32, ptr nonnull %7) #7
  call void @llvm.lifetime.end.p0(i64 32, ptr nonnull %6) #7
  call void @llvm.lifetime.end.p0(i64 480, ptr nonnull %5) #7
  ret i32 %.018
}